; Function Attrs: mustprogress uwtable
define internal fastcc void @_ZL13getVertexCopyPN20b3ConvexHullInternal6VertexER20b3AlignedObjectArrayIS1_E(ptr noundef %0, ptr noundef nonnull align 8 captures(none) dereferenceable(25) %1) unnamed_addr #4 {
  %3 = getelementptr inbounds nuw i8, ptr %0, i64 120
  %4 = load i32, ptr %3, align 8, !tbaa !144
  %5 = icmp slt i32 %4, 0
  br i1 %5, label %6, label %43

6:                                                ; preds = %2
  %7 = getelementptr inbounds nuw i8, ptr %1, i64 4
  %8 = load i32, ptr %7, align 4, !tbaa !135
  store i32 %8, ptr %3, align 8, !tbaa !144
  %9 = getelementptr inbounds nuw i8, ptr %1, i64 8
  %10 = load i32, ptr %9, align 8, !tbaa !136
  %11 = icmp eq i32 %8, %10
  br i1 %11, label %12, label %_ZN20b3AlignedObjectArrayIPN20b3ConvexHullInternal6VertexEE9push_backERKS2_.exit

12:                                               ; preds = %6
  %.not.i.i = icmp eq i32 %8, 0
  %13 = shl nsw i32 %8, 1
  %14 = select i1 %.not.i.i, i32 1, i32 %13
  %15 = icmp slt i32 %8, %14
  br i1 %15, label %16, label %_ZN20b3AlignedObjectArrayIPN20b3ConvexHullInternal6VertexEE9push_backERKS2_.exit

16:                                               ; preds = %12
  %.not.i.i.i = icmp eq i32 %14, 0
  br i1 %.not.i.i.i, label %_ZNK20b3AlignedObjectArrayIPN20b3ConvexHullInternal6VertexEE4copyEiiPS2_.exit15.i.i, label %_ZN20b3AlignedObjectArrayIPN20b3ConvexHullInternal6VertexEE8allocateEi.exit.i.i

_ZN20b3AlignedObjectArrayIPN20b3ConvexHullInternal6VertexEE8allocateEi.exit.i.i: ; preds = %16
  %17 = sext i32 %14 to i64
  %18 = shl nsw i64 %17, 3
  %19 = tail call noundef ptr @_Z22b3AlignedAllocInternalmi(i64 noundef %18, i32 noundef 16)
  %20 = icmp eq ptr %19, null
  br i1 %20, label %_ZNK20b3AlignedObjectArrayIPN20b3ConvexHullInternal6VertexEE4copyEiiPS2_.exit15.i.i, label %.split.i.i

.split.i.i:                                       ; preds = %_ZN20b3AlignedObjectArrayIPN20b3ConvexHullInternal6VertexEE8allocateEi.exit.i.i
  %21 = load i32, ptr %7, align 4, !tbaa !135
  %22 = icmp sgt i32 %21, 0
  br i1 %22, label %.lr.ph.i.i.i, label %_ZNK20b3AlignedObjectArrayIPN20b3ConvexHullInternal6VertexEE4copyEiiPS2_.exit.i.i

.lr.ph.i.i.i:                                     ; preds = %.split.i.i
  %23 = getelementptr inbounds nuw i8, ptr %1, i64 16
  %24 = load ptr, ptr %23, align 8, !tbaa !76
  %wide.trip.count.i.i.i = zext nneg i32 %21 to i64
  br label %25

25:                                               ; preds = %25, %.lr.ph.i.i.i
  %indvars.iv.i.i.i = phi i64 [ 0, %.lr.ph.i.i.i ], [ %indvars.iv.next.i.i.i, %25 ]
  %26 = getelementptr inbounds nuw ptr, ptr %19, i64 %indvars.iv.i.i.i
  %27 = getelementptr inbounds nuw ptr, ptr %24, i64 %indvars.iv.i.i.i
  %28 = load ptr, ptr %27, align 8, !tbaa !66
  store ptr %28, ptr %26, align 8, !tbaa !66
  %indvars.iv.next.i.i.i = add nuw nsw i64 %indvars.iv.i.i.i, 1
  %exitcond.not.i.i.i = icmp eq i64 %indvars.iv.next.i.i.i, %wide.trip.count.i.i.i
  br i1 %exitcond.not.i.i.i, label %_ZNK20b3AlignedObjectArrayIPN20b3ConvexHullInternal6VertexEE4copyEiiPS2_.exit.i.i, label %25, !llvm.loop !137

_ZNK20b3AlignedObjectArrayIPN20b3ConvexHullInternal6VertexEE4copyEiiPS2_.exit15.i.i: ; preds = %_ZN20b3AlignedObjectArrayIPN20b3ConvexHullInternal6VertexEE8allocateEi.exit.i.i, %16
  tail call void (ptr, ...) @b3OutputErrorMessageVarArgsInternal(ptr noundef nonnull @.str, ptr noundef nonnull @.str.1, i32 noundef 301)
  tail call void (ptr, ...) @b3OutputErrorMessageVarArgsInternal(ptr noundef nonnull @.str.2)
  store i32 0, ptr %7, align 4, !tbaa !135
  br label %_ZNK20b3AlignedObjectArrayIPN20b3ConvexHullInternal6VertexEE4copyEiiPS2_.exit.i.i

_ZNK20b3AlignedObjectArrayIPN20b3ConvexHullInternal6VertexEE4copyEiiPS2_.exit.i.i: ; preds = %25, %_ZNK20b3AlignedObjectArrayIPN20b3ConvexHullInternal6VertexEE4copyEiiPS2_.exit15.i.i, %.split.i.i
  %.pre3.i = phi i32 [ 0, %_ZNK20b3AlignedObjectArrayIPN20b3ConvexHullInternal6VertexEE4copyEiiPS2_.exit15.i.i ], [ %21, %.split.i.i ], [ %21, %25 ]
  %.0.i18.i.i = phi ptr [ null, %_ZNK20b3AlignedObjectArrayIPN20b3ConvexHullInternal6VertexEE4copyEiiPS2_.exit15.i.i ], [ %19, %.split.i.i ], [ %19, %25 ]
  %.0.i.i = phi i32 [ 0, %_ZNK20b3AlignedObjectArrayIPN20b3ConvexHullInternal6VertexEE4copyEiiPS2_.exit15.i.i ], [ %14, %.split.i.i ], [ %14, %25 ]
  %29 = getelementptr inbounds nuw i8, ptr %1, i64 16
  %30 = load ptr, ptr %29, align 8, !tbaa !76
  %.not.i16.i.i = icmp eq ptr %30, null
  br i1 %.not.i16.i.i, label %_ZN20b3AlignedObjectArrayIPN20b3ConvexHullInternal6VertexEE10deallocateEv.exit.i.i, label %31

31:                                               ; preds = %_ZNK20b3AlignedObjectArrayIPN20b3ConvexHullInternal6VertexEE4copyEiiPS2_.exit.i.i
  %32 = getelementptr inbounds nuw i8, ptr %1, i64 24
  %33 = load i8, ptr %32, align 8, !tbaa !138, !range !19, !noundef !20
  %34 = trunc nuw i8 %33 to i1
  br i1 %34, label %35, label %_ZN20b3AlignedObjectArrayIPN20b3ConvexHullInternal6VertexEE10deallocateEv.exit.i.i

35:                                               ; preds = %31
  tail call void @_Z21b3AlignedFreeInternalPv(ptr noundef nonnull %30)
  %.pre.pre.i = load i32, ptr %7, align 4, !tbaa !135
  br label %_ZN20b3AlignedObjectArrayIPN20b3ConvexHullInternal6VertexEE10deallocateEv.exit.i.i

_ZN20b3AlignedObjectArrayIPN20b3ConvexHullInternal6VertexEE10deallocateEv.exit.i.i: ; preds = %35, %31, %_ZNK20b3AlignedObjectArrayIPN20b3ConvexHullInternal6VertexEE4copyEiiPS2_.exit.i.i
  %.pre.i = phi i32 [ %.pre.pre.i, %35 ], [ %.pre3.i, %31 ], [ %.pre3.i, %_ZNK20b3AlignedObjectArrayIPN20b3ConvexHullInternal6VertexEE4copyEiiPS2_.exit.i.i ]
  %36 = getelementptr inbounds nuw i8, ptr %1, i64 24
  store i8 1, ptr %36, align 8, !tbaa !138
  store ptr %.0.i18.i.i, ptr %29, align 8, !tbaa !76
  store i32 %.0.i.i, ptr %9, align 8, !tbaa !136
  br label %_ZN20b3AlignedObjectArrayIPN20b3ConvexHullInternal6VertexEE9push_backERKS2_.exit

_ZN20b3AlignedObjectArrayIPN20b3ConvexHullInternal6VertexEE9push_backERKS2_.exit: ; preds = %6, %12, %_ZN20b3AlignedObjectArrayIPN20b3ConvexHullInternal6VertexEE10deallocateEv.exit.i.i
  %37 = phi i32 [ %.pre.i, %_ZN20b3AlignedObjectArrayIPN20b3ConvexHullInternal6VertexEE10deallocateEv.exit.i.i ], [ %8, %12 ], [ %8, %6 ]
  %38 = getelementptr inbounds nuw i8, ptr %1, i64 16
  %39 = load ptr, ptr %38, align 8, !tbaa !76
  %40 = sext i32 %37 to i64
  %41 = getelementptr inbounds ptr, ptr %39, i64 %40
  store ptr %0, ptr %41, align 8, !tbaa !66
  %42 = add nsw i32 %37, 1
  store i32 %42, ptr %7, align 4, !tbaa !135
  br label %43

43:                                               ; preds = %_ZN20b3AlignedObjectArrayIPN20b3ConvexHullInternal6VertexEE9push_backERKS2_.exit, %2
  ret void
}